target datalayout = "e-m:e-p270:32:32-p271:32:32-p272:64:64-i64:64-i128:128-f80:128-n8:16:32:64-S128"
target triple = "x86_64-pc-linux-gnu"

; Function Attrs: nounwind uwtable
define i32 @stb__Lerp13(i32 noundef %0, i32 noundef %1) #0 {
  %3 = alloca i32, align 4
  %4 = alloca i32, align 4
  store i32 %0, ptr %3, align 4, !tbaa !3
  store i32 %1, ptr %4, align 4, !tbaa !3
  %5 = load i32, ptr %3, align 4, !tbaa !3
  %6 = mul nsw i32 2, %5
  %7 = load i32, ptr %4, align 4, !tbaa !3
  %8 = add nsw i32 %6, %7
  %9 = sdiv i32 %8, 3
  ret i32 %9
}

; Function Attrs: nounwind uwtable
define void @stb__Lerp13RGB(ptr noundef %0, ptr noundef %1, ptr noundef %2) #0 {
  %4 = alloca ptr, align 8
  %5 = alloca ptr, align 8
  %6 = alloca ptr, align 8
  store ptr %0, ptr %4, align 8, !tbaa !7
  store ptr %1, ptr %5, align 8, !tbaa !7
  store ptr %2, ptr %6, align 8, !tbaa !7
  %7 = load ptr, ptr %5, align 8, !tbaa !7
  %8 = getelementptr inbounds i8, ptr %7, i64 0
  %9 = load i8, ptr %8, align 1, !tbaa !12
  %10 = zext i8 %9 to i32
  %11 = load ptr, ptr %6, align 8, !tbaa !7
  %12 = getelementptr inbounds i8, ptr %11, i64 0
  %13 = load i8, ptr %12, align 1, !tbaa !12
  %14 = zext i8 %13 to i32
  %15 = call i32 @stb__Lerp13(i32 noundef %10, i32 noundef %14)
  %16 = trunc i32 %15 to i8
  %17 = load ptr, ptr %4, align 8, !tbaa !7
  %18 = getelementptr inbounds i8, ptr %17, i64 0
  store i8 %16, ptr %18, align 1, !tbaa !12
  %19 = load ptr, ptr %5, align 8, !tbaa !7
  %20 = getelementptr inbounds i8, ptr %19, i64 1
  %21 = load i8, ptr %20, align 1, !tbaa !12
  %22 = zext i8 %21 to i32
  %23 = load ptr, ptr %6, align 8, !tbaa !7
  %24 = getelementptr inbounds i8, ptr %23, i64 1
  %25 = load i8, ptr %24, align 1, !tbaa !12
  %26 = zext i8 %25 to i32
  %27 = call i32 @stb__Lerp13(i32 noundef %22, i32 noundef %26)
  %28 = trunc i32 %27 to i8
  %29 = load ptr, ptr %4, align 8, !tbaa !7
  %30 = getelementptr inbounds i8, ptr %29, i64 1
  store i8 %28, ptr %30, align 1, !tbaa !12
  %31 = load ptr, ptr %5, align 8, !tbaa !7
  %32 = getelementptr inbounds i8, ptr %31, i64 2
  %33 = load i8, ptr %32, align 1, !tbaa !12
  %34 = zext i8 %33 to i32
  %35 = load ptr, ptr %6, align 8, !tbaa !7
  %36 = getelementptr inbounds i8, ptr %35, i64 2
  %37 = load i8, ptr %36, align 1, !tbaa !12
  %38 = zext i8 %37 to i32
  %39 = call i32 @stb__Lerp13(i32 noundef %34, i32 noundef %38)
  %40 = trunc i32 %39 to i8
  %41 = load ptr, ptr %4, align 8, !tbaa !7
  %42 = getelementptr inbounds i8, ptr %41, i64 2
  store i8 %40, ptr %42, align 1, !tbaa !12
  ret void
}