; Function Attrs: mustprogress nofree norecurse nosync nounwind willreturn memory(argmem: readwrite) uwtable
define void @stb__Lerp13RGB(ptr noundef writeonly captures(none) initializes((0, 3)) %0, ptr noundef readonly captures(none) %1, ptr noundef readonly captures(none) %2) local_unnamed_addr #3 {
  %4 = load i8, ptr %1, align 1, !tbaa !3
  %5 = zext i8 %4 to i16
  %6 = load i8, ptr %2, align 1, !tbaa !3
  %7 = zext i8 %6 to i16
  %8 = shl nuw nsw i16 %5, 1
  %.lhs.trunc = add nuw nsw i16 %8, %7
  %9 = udiv i16 %.lhs.trunc, 3
  %10 = trunc nuw i16 %9 to i8
  store i8 %10, ptr %0, align 1, !tbaa !3
  %11 = getelementptr inbounds nuw i8, ptr %1, i64 1
  %12 = load i8, ptr %11, align 1, !tbaa !3
  %13 = zext i8 %12 to i16
  %14 = getelementptr inbounds nuw i8, ptr %2, i64 1
  %15 = load i8, ptr %14, align 1, !tbaa !3
  %16 = zext i8 %15 to i16
  %17 = shl nuw nsw i16 %13, 1
  %.lhs.trunc9 = add nuw nsw i16 %17, %16
  %18 = udiv i16 %.lhs.trunc9, 3
  %19 = trunc nuw i16 %18 to i8
  %20 = getelementptr inbounds nuw i8, ptr %0, i64 1
  store i8 %19, ptr %20, align 1, !tbaa !3
  %21 = getelementptr inbounds nuw i8, ptr %1, i64 2
  %22 = load i8, ptr %21, align 1, !tbaa !3
  %23 = zext i8 %22 to i16
  %24 = getelementptr inbounds nuw i8, ptr %2, i64 2
  %25 = load i8, ptr %24, align 1, !tbaa !3
  %26 = zext i8 %25 to i16
  %27 = shl nuw nsw i16 %23, 1
  %.lhs.trunc11 = add nuw nsw i16 %27, %26
  %28 = udiv i16 %.lhs.trunc11, 3
  %29 = trunc nuw i16 %28 to i8
  %30 = getelementptr inbounds nuw i8, ptr %0, i64 2
  store i8 %29, ptr %30, align 1, !tbaa !3
  ret void
}